target datalayout = "e-m:e-p270:32:32-p271:32:32-p272:64:64-i64:64-i128:128-f80:128-n8:16:32:64-S128"
target triple = "x86_64-pc-linux-gnu"

%struct.ChanDelay = type { i64, i64, i64, i32, ptr }

; Function Attrs: nounwind uwtable
define internal void @delay_channel_s16p(ptr noundef %0, i32 noundef %1, ptr noundef %2, ptr noundef %3) #1 {
  %5 = alloca ptr, align 8
  %6 = alloca i32, align 4
  %7 = alloca ptr, align 8
  %8 = alloca ptr, align 8
  %9 = alloca ptr, align 8
  %10 = alloca ptr, align 8
  %11 = alloca ptr, align 8
  %12 = alloca i32, align 4
  store ptr %0, ptr %5, align 8, !tbaa !46
  store i32 %1, ptr %6, align 4, !tbaa !29
  store ptr %2, ptr %7, align 8, !tbaa !33
  store ptr %3, ptr %8, align 8, !tbaa !33
  call void @llvm.lifetime.start.p0(i64 8, ptr %9) #9
  %13 = load ptr, ptr %7, align 8, !tbaa !33
  store ptr %13, ptr %9, align 8, !tbaa !93
  call void @llvm.lifetime.start.p0(i64 8, ptr %10) #9
  %14 = load ptr, ptr %8, align 8, !tbaa !33
  store ptr %14, ptr %10, align 8, !tbaa !93
  call void @llvm.lifetime.start.p0(i64 8, ptr %11) #9
  %15 = load ptr, ptr %5, align 8, !tbaa !46
  %16 = getelementptr inbounds nuw %struct.ChanDelay, ptr %15, i32 0, i32 4
  %17 = load ptr, ptr %16, align 8, !tbaa !80
  store ptr %17, ptr %11, align 8, !tbaa !93
  br label %18

18:                                               ; preds = %125, %4
  %19 = load i32, ptr %6, align 4, !tbaa !29
  %20 = icmp ne i32 %19, 0
  br i1 %20, label %21, label %126

21:                                               ; preds = %18
  %22 = load ptr, ptr %5, align 8, !tbaa !46
  %23 = getelementptr inbounds nuw %struct.ChanDelay, ptr %22, i32 0, i32 1
  %24 = load i64, ptr %23, align 8, !tbaa !90
  %25 = load ptr, ptr %5, align 8, !tbaa !46
  %26 = getelementptr inbounds nuw %struct.ChanDelay, ptr %25, i32 0, i32 0
  %27 = load i64, ptr %26, align 8, !tbaa !48
  %28 = icmp ult i64 %24, %27
  br i1 %28, label %29, label %84

29:                                               ; preds = %21
  call void @llvm.lifetime.start.p0(i64 4, ptr %12) #9
  %30 = load i32, ptr %6, align 4, !tbaa !29
  %31 = sext i32 %30 to i64
  %32 = load ptr, ptr %5, align 8, !tbaa !46
  %33 = getelementptr inbounds nuw %struct.ChanDelay, ptr %32, i32 0, i32 0
  %34 = load i64, ptr %33, align 8, !tbaa !48
  %35 = load ptr, ptr %5, align 8, !tbaa !46
  %36 = getelementptr inbounds nuw %struct.ChanDelay, ptr %35, i32 0, i32 1
  %37 = load i64, ptr %36, align 8, !tbaa !90
  %38 = sub i64 %34, %37
  %39 = icmp ugt i64 %31, %38
  br i1 %39, label %40, label %48

40:                                               ; preds = %29
  %41 = load ptr, ptr %5, align 8, !tbaa !46
  %42 = getelementptr inbounds nuw %struct.ChanDelay, ptr %41, i32 0, i32 0
  %43 = load i64, ptr %42, align 8, !tbaa !48
  %44 = load ptr, ptr %5, align 8, !tbaa !46
  %45 = getelementptr inbounds nuw %struct.ChanDelay, ptr %44, i32 0, i32 1
  %46 = load i64, ptr %45, align 8, !tbaa !90
  %47 = sub i64 %43, %46
  br label %51

48:                                               ; preds = %29
  %49 = load i32, ptr %6, align 4, !tbaa !29
  %50 = sext i32 %49 to i64
  br label %51

51:                                               ; preds = %48, %40
  %52 = phi i64 [ %47, %40 ], [ %50, %48 ]
  %53 = trunc i64 %52 to i32
  store i32 %53, ptr %12, align 4, !tbaa !29
  %54 = load ptr, ptr %11, align 8, !tbaa !93
  %55 = load ptr, ptr %5, align 8, !tbaa !46
  %56 = getelementptr inbounds nuw %struct.ChanDelay, ptr %55, i32 0, i32 1
  %57 = load i64, ptr %56, align 8, !tbaa !90
  %58 = getelementptr inbounds nuw i16, ptr %54, i64 %57
  %59 = load ptr, ptr %9, align 8, !tbaa !93
  %60 = load i32, ptr %12, align 4, !tbaa !29
  %61 = sext i32 %60 to i64
  %62 = mul i64 %61, 2
  call void @llvm.memcpy.p0.p0.i64(ptr align 2 %58, ptr align 2 %59, i64 %62, i1 false)
  %63 = load ptr, ptr %10, align 8, !tbaa !93
  %64 = load i32, ptr %12, align 4, !tbaa !29
  %65 = sext i32 %64 to i64
  %66 = mul i64 %65, 2
  call void @llvm.memset.p0.i64(ptr align 2 %63, i8 0, i64 %66, i1 false)
  %67 = load i32, ptr %12, align 4, !tbaa !29
  %68 = sext i32 %67 to i64
  %69 = load ptr, ptr %5, align 8, !tbaa !46
  %70 = getelementptr inbounds nuw %struct.ChanDelay, ptr %69, i32 0, i32 1
  %71 = load i64, ptr %70, align 8, !tbaa !90
  %72 = add i64 %71, %68
  store i64 %72, ptr %70, align 8, !tbaa !90
  %73 = load i32, ptr %12, align 4, !tbaa !29
  %74 = load ptr, ptr %9, align 8, !tbaa !93
  %75 = sext i32 %73 to i64
  %76 = getelementptr inbounds i16, ptr %74, i64 %75
  store ptr %76, ptr %9, align 8, !tbaa !93
  %77 = load i32, ptr %12, align 4, !tbaa !29
  %78 = load ptr, ptr %10, align 8, !tbaa !93
  %79 = sext i32 %77 to i64
  %80 = getelementptr inbounds i16, ptr %78, i64 %79
  store ptr %80, ptr %10, align 8, !tbaa !93
  %81 = load i32, ptr %12, align 4, !tbaa !29
  %82 = load i32, ptr %6, align 4, !tbaa !29
  %83 = sub nsw i32 %82, %81
  store i32 %83, ptr %6, align 4, !tbaa !29
  call void @llvm.lifetime.end.p0(i64 4, ptr %12) #9
  br label %125

84:                                               ; preds = %21
  %85 = load ptr, ptr %11, align 8, !tbaa !93
  %86 = load ptr, ptr %5, align 8, !tbaa !46
  %87 = getelementptr inbounds nuw %struct.ChanDelay, ptr %86, i32 0, i32 2
  %88 = load i64, ptr %87, align 8, !tbaa !91
  %89 = getelementptr inbounds nuw i16, ptr %85, i64 %88
  %90 = load i16, ptr %89, align 2, !tbaa !95
  %91 = load ptr, ptr %10, align 8, !tbaa !93
  store i16 %90, ptr %91, align 2, !tbaa !95
  %92 = load ptr, ptr %9, align 8, !tbaa !93
  %93 = load i16, ptr %92, align 2, !tbaa !95
  %94 = load ptr, ptr %11, align 8, !tbaa !93
  %95 = load ptr, ptr %5, align 8, !tbaa !46
  %96 = getelementptr inbounds nuw %struct.ChanDelay, ptr %95, i32 0, i32 2
  %97 = load i64, ptr %96, align 8, !tbaa !91
  %98 = getelementptr inbounds nuw i16, ptr %94, i64 %97
  store i16 %93, ptr %98, align 2, !tbaa !95
  %99 = load i32, ptr %6, align 4, !tbaa !29
  %100 = add nsw i32 %99, -1
  store i32 %100, ptr %6, align 4, !tbaa !29
  %101 = load ptr, ptr %5, align 8, !tbaa !46
  %102 = getelementptr inbounds nuw %struct.ChanDelay, ptr %101, i32 0, i32 2
  %103 = load i64, ptr %102, align 8, !tbaa !91
  %104 = add i64 %103, 1
  store i64 %104, ptr %102, align 8, !tbaa !91
  %105 = load ptr, ptr %9, align 8, !tbaa !93
  %106 = getelementptr inbounds nuw i16, ptr %105, i32 1
  store ptr %106, ptr %9, align 8, !tbaa !93
  %107 = load ptr, ptr %10, align 8, !tbaa !93
  %108 = getelementptr inbounds nuw i16, ptr %107, i32 1
  store ptr %108, ptr %10, align 8, !tbaa !93
  %109 = load ptr, ptr %5, align 8, !tbaa !46
  %110 = getelementptr inbounds nuw %struct.ChanDelay, ptr %109, i32 0, i32 2
  %111 = load i64, ptr %110, align 8, !tbaa !91
  %112 = load ptr, ptr %5, align 8, !tbaa !46
  %113 = getelementptr inbounds nuw %struct.ChanDelay, ptr %112, i32 0, i32 0
  %114 = load i64, ptr %113, align 8, !tbaa !48
  %115 = icmp uge i64 %111, %114
  br i1 %115, label %116, label %117

116:                                              ; preds = %84
  br label %121

117:                                              ; preds = %84
  %118 = load ptr, ptr %5, align 8, !tbaa !46
  %119 = getelementptr inbounds nuw %struct.ChanDelay, ptr %118, i32 0, i32 2
  %120 = load i64, ptr %119, align 8, !tbaa !91
  br label %121

121:                                              ; preds = %117, %116
  %122 = phi i64 [ 0, %116 ], [ %120, %117 ]
  %123 = load ptr, ptr %5, align 8, !tbaa !46
  %124 = getelementptr inbounds nuw %struct.ChanDelay, ptr %123, i32 0, i32 2
  store i64 %122, ptr %124, align 8, !tbaa !91
  br label %125

125:                                              ; preds = %121, %51
  br label %18, !llvm.loop !97

126:                                              ; preds = %18
  call void @llvm.lifetime.end.p0(i64 8, ptr %11) #9
  call void @llvm.lifetime.end.p0(i64 8, ptr %10) #9
  call void @llvm.lifetime.end.p0(i64 8, ptr %9) #9
  ret void
}