; Function Attrs: nofree norecurse nosync nounwind memory(readwrite, inaccessiblemem: none) uwtable
define internal void @delay_channel_s16p(ptr noundef captures(none) %0, i32 noundef %1, ptr noundef readonly captures(none) %2, ptr noundef writeonly captures(none) %3) #5 {
  %5 = getelementptr inbounds nuw i8, ptr %0, i64 32
  %6 = load ptr, ptr %5, align 8, !tbaa !75
  %.not49 = icmp eq i32 %1, 0
  br i1 %.not49, label %._crit_edge, label %.lr.ph

.lr.ph:                                           ; preds = %4
  %7 = getelementptr inbounds nuw i8, ptr %0, i64 8
  %8 = getelementptr inbounds nuw i8, ptr %0, i64 16
  %9 = load i64, ptr %7, align 8, !tbaa !79
  %10 = load i64, ptr %0, align 8, !tbaa !46
  %11 = icmp ult i64 %9, %10
  br i1 %11, label %.lr.ph.split, label %.lr.ph.split.us

.lr.ph.split.us:                                  ; preds = %.lr.ph
  %.promoted = load i64, ptr %8, align 8, !tbaa !80
  br label %12

12:                                               ; preds = %12, %.lr.ph.split.us
  %spec.select.us53 = phi i64 [ %.promoted, %.lr.ph.split.us ], [ %spec.select.us, %12 ]
  %.052.us = phi i32 [ %1, %.lr.ph.split.us ], [ %16, %12 ]
  %.03951.us = phi ptr [ %2, %.lr.ph.split.us ], [ %18, %12 ]
  %.04150.us = phi ptr [ %3, %.lr.ph.split.us ], [ %19, %12 ]
  %13 = getelementptr inbounds nuw i16, ptr %6, i64 %spec.select.us53
  %14 = load i16, ptr %13, align 2, !tbaa !82
  store i16 %14, ptr %.04150.us, align 2, !tbaa !82
  %15 = load i16, ptr %.03951.us, align 2, !tbaa !82
  store i16 %15, ptr %13, align 2, !tbaa !82
  %16 = add nsw i32 %.052.us, -1
  %17 = add i64 %spec.select.us53, 1
  %18 = getelementptr inbounds nuw i8, ptr %.03951.us, i64 2
  %19 = getelementptr inbounds nuw i8, ptr %.04150.us, i64 2
  %.not48.us = icmp ult i64 %17, %10
  %spec.select.us = select i1 %.not48.us, i64 %17, i64 0
  %.not.us = icmp eq i32 %16, 0
  br i1 %.not.us, label %._crit_edge.split.us, label %12, !llvm.loop !84

._crit_edge.split.us:                             ; preds = %12
  store i64 %spec.select.us, ptr %8, align 8, !tbaa !80
  br label %._crit_edge

.lr.ph.split:                                     ; preds = %.lr.ph, %45
  %20 = phi i64 [ %46, %45 ], [ %9, %.lr.ph ]
  %.052 = phi i32 [ %.1, %45 ], [ %1, %.lr.ph ]
  %.03951 = phi ptr [ %.140, %45 ], [ %2, %.lr.ph ]
  %.04150 = phi ptr [ %.142, %45 ], [ %3, %.lr.ph ]
  %21 = load i64, ptr %0, align 8, !tbaa !46
  %22 = icmp ult i64 %20, %21
  br i1 %22, label %23, label %36

23:                                               ; preds = %.lr.ph.split
  %24 = sext i32 %.052 to i64
  %25 = sub nuw i64 %21, %20
  %26 = tail call i64 @llvm.umin.i64(i64 %25, i64 %24)
  %27 = trunc i64 %26 to i32
  %28 = getelementptr inbounds nuw i16, ptr %6, i64 %20
  %sext = shl i64 %26, 32
  %29 = ashr exact i64 %sext, 32
  %30 = ashr exact i64 %sext, 31
  tail call void @llvm.memcpy.p0.p0.i64(ptr align 2 %28, ptr align 2 %.03951, i64 %30, i1 false)
  tail call void @llvm.memset.p0.i64(ptr align 2 %.04150, i8 0, i64 %30, i1 false)
  %31 = load i64, ptr %7, align 8, !tbaa !79
  %32 = add i64 %31, %29
  store i64 %32, ptr %7, align 8, !tbaa !79
  %33 = getelementptr inbounds i16, ptr %.03951, i64 %29
  %34 = getelementptr inbounds i16, ptr %.04150, i64 %29
  %35 = sub nsw i32 %.052, %27
  br label %45

36:                                               ; preds = %.lr.ph.split
  %37 = load i64, ptr %8, align 8, !tbaa !80
  %38 = getelementptr inbounds nuw i16, ptr %6, i64 %37
  %39 = load i16, ptr %38, align 2, !tbaa !82
  store i16 %39, ptr %.04150, align 2, !tbaa !82
  %40 = load i16, ptr %.03951, align 2, !tbaa !82
  store i16 %40, ptr %38, align 2, !tbaa !82
  %41 = add nsw i32 %.052, -1
  %42 = add i64 %37, 1
  %43 = getelementptr inbounds nuw i8, ptr %.03951, i64 2
  %44 = getelementptr inbounds nuw i8, ptr %.04150, i64 2
  %.not48 = icmp ult i64 %42, %21
  %spec.select = select i1 %.not48, i64 %42, i64 0
  store i64 %spec.select, ptr %8, align 8, !tbaa !80
  br label %45

45:                                               ; preds = %36, %23
  %46 = phi i64 [ %32, %23 ], [ %20, %36 ]
  %.142 = phi ptr [ %34, %23 ], [ %44, %36 ]
  %.140 = phi ptr [ %33, %23 ], [ %43, %36 ]
  %.1 = phi i32 [ %35, %23 ], [ %41, %36 ]
  %.not = icmp eq i32 %.1, 0
  br i1 %.not, label %._crit_edge, label %.lr.ph.split, !llvm.loop !85

._crit_edge:                                      ; preds = %45, %._crit_edge.split.us, %4
  ret void
}